target datalayout = "e-m:e-p270:32:32-p271:32:32-p272:64:64-i64:64-i128:128-f80:128-n8:16:32:64-S128"
target triple = "x86_64-unknown-linux-gnu"

%"class.icu_75::UnicodeString" = type { %"class.icu_75::Replaceable", %"union.icu_75::UnicodeString::StackBufferOrFields" }
%"class.icu_75::Replaceable" = type { %"class.icu_75::UObject" }
%"class.icu_75::UObject" = type { ptr }
%"union.icu_75::UnicodeString::StackBufferOrFields" = type { %struct.anon.0, [32 x i8] }
%struct.anon.0 = type { i16, i32, i32, ptr }
%"class.icu_75::TransliteratorSpec" = type { [8 x i8], %"class.icu_75::UnicodeString", %"class.icu_75::UnicodeString", %"class.icu_75::UnicodeString", %"class.icu_75::UnicodeString", i8, i8, ptr }

; Function Attrs: mustprogress nounwind uwtable
define linkonce_odr noundef nonnull align 8 dereferenceable(64) ptr @_ZNK6icu_7518TransliteratorSpec6getTopEv(ptr noundef nonnull align 8 dereferenceable(280) %this) #0 comdat align 2 {
entry:
  %this.addr = alloca ptr, align 8
  store ptr %this, ptr %this.addr, align 8
  %this1 = load ptr, ptr %this.addr, align 8
  %top = getelementptr inbounds %"class.icu_75::TransliteratorSpec", ptr %this1, i32 0, i32 1
  ret ptr %top
}

; Function Attrs: mustprogress nounwind uwtable
define noundef signext i8 @_ZNK6icu_7518TransliteratorSpec8isLocaleEv(ptr noundef nonnull align 8 dereferenceable(280) %this) #0 align 2 {
entry:
  %this.addr = alloca ptr, align 8
  store ptr %this, ptr %this.addr, align 8
  %this1 = load ptr, ptr %this.addr, align 8
  %isSpecLocale = getelementptr inbounds %"class.icu_75::TransliteratorSpec", ptr %this1, i32 0, i32 5
  %0 = load i8, ptr %isSpecLocale, align 8
  ret i8 %0
}

; Function Attrs: mustprogress uwtable
define noundef ptr @_ZN6icu_7522TransliteratorRegistry17findInStaticStoreERKNS_18TransliteratorSpecES3_RKNS_13UnicodeStringE(ptr noundef nonnull align 8 dereferenceable(312) %this, ptr noundef nonnull align 8 dereferenceable(280) %src, ptr noundef nonnull align 8 dereferenceable(280) %trg, ptr noundef nonnull align 8 dereferenceable(64) %variant) #1 align 2 {
entry:
  %this.addr = alloca ptr, align 8
  %src.addr = alloca ptr, align 8
  %trg.addr = alloca ptr, align 8
  %variant.addr = alloca ptr, align 8
  %entry2 = alloca ptr, align 8
  store ptr %this, ptr %this.addr, align 8
  store ptr %src, ptr %src.addr, align 8
  store ptr %trg, ptr %trg.addr, align 8
  store ptr %variant, ptr %variant.addr, align 8
  %this1 = load ptr, ptr %this.addr, align 8
  store ptr null, ptr %entry2, align 8
  %0 = load ptr, ptr %src.addr, align 8
  %call = call noundef signext i8 @_ZNK6icu_7518TransliteratorSpec8isLocaleEv(ptr noundef nonnull align 8 dereferenceable(280) %0)
  %tobool = icmp ne i8 %call, 0
  br i1 %tobool, label %if.then, label %if.else

if.then:                                          ; preds = %entry
  %1 = load ptr, ptr %src.addr, align 8
  %2 = load ptr, ptr %trg.addr, align 8
  %3 = load ptr, ptr %variant.addr, align 8
  %call3 = call noundef ptr @_ZN6icu_7522TransliteratorRegistry12findInBundleERKNS_18TransliteratorSpecES3_RKNS_13UnicodeStringE15UTransDirection(ptr noundef nonnull align 8 dereferenceable(280) %1, ptr noundef nonnull align 8 dereferenceable(280) %2, ptr noundef nonnull align 8 dereferenceable(64) %3, i32 noundef 0)
  store ptr %call3, ptr %entry2, align 8
  br label %if.end8

if.else:                                          ; preds = %entry
  %4 = load ptr, ptr %trg.addr, align 8
  %call4 = call noundef signext i8 @_ZNK6icu_7518TransliteratorSpec8isLocaleEv(ptr noundef nonnull align 8 dereferenceable(280) %4)
  %tobool5 = icmp ne i8 %call4, 0
  br i1 %tobool5, label %if.then6, label %if.end

if.then6:                                         ; preds = %if.else
  %5 = load ptr, ptr %trg.addr, align 8
  %6 = load ptr, ptr %src.addr, align 8
  %7 = load ptr, ptr %variant.addr, align 8
  %call7 = call noundef ptr @_ZN6icu_7522TransliteratorRegistry12findInBundleERKNS_18TransliteratorSpecES3_RKNS_13UnicodeStringE15UTransDirection(ptr noundef nonnull align 8 dereferenceable(280) %5, ptr noundef nonnull align 8 dereferenceable(280) %6, ptr noundef nonnull align 8 dereferenceable(64) %7, i32 noundef 1)
  store ptr %call7, ptr %entry2, align 8
  br label %if.end

if.end:                                           ; preds = %if.then6, %if.else
  br label %if.end8

if.end8:                                          ; preds = %if.end, %if.then
  %8 = load ptr, ptr %entry2, align 8
  %cmp = icmp ne ptr %8, null
  br i1 %cmp, label %if.then9, label %if.end12

if.then9:                                         ; preds = %if.end8
  %9 = load ptr, ptr %src.addr, align 8
  %call10 = call noundef nonnull align 8 dereferenceable(64) ptr @_ZNK6icu_7518TransliteratorSpec6getTopEv(ptr noundef nonnull align 8 dereferenceable(280) %9)
  %10 = load ptr, ptr %trg.addr, align 8
  %call11 = call noundef nonnull align 8 dereferenceable(64) ptr @_ZNK6icu_7518TransliteratorSpec6getTopEv(ptr noundef nonnull align 8 dereferenceable(280) %10)
  %11 = load ptr, ptr %variant.addr, align 8
  %12 = load ptr, ptr %entry2, align 8
  call void @_ZN6icu_7522TransliteratorRegistry13registerEntryERKNS_13UnicodeStringES3_S3_PNS_19TransliteratorEntryEa(ptr noundef nonnull align 8 dereferenceable(312) %this1, ptr noundef nonnull align 8 dereferenceable(64) %call10, ptr noundef nonnull align 8 dereferenceable(64) %call11, ptr noundef nonnull align 8 dereferenceable(64) %11, ptr noundef %12, i8 noundef signext 0)
  br label %if.end12

if.end12:                                         ; preds = %if.then9, %if.end8
  %13 = load ptr, ptr %entry2, align 8
  ret ptr %13
}