; Function Attrs: mustprogress uwtable
define noundef ptr @_ZN6icu_7522TransliteratorRegistry17findInStaticStoreERKNS_18TransliteratorSpecES3_RKNS_13UnicodeStringE(ptr noundef nonnull align 8 dereferenceable(312) %this, ptr noundef nonnull align 8 dereferenceable(280) %src, ptr noundef nonnull align 8 dereferenceable(280) %trg, ptr noundef nonnull align 8 dereferenceable(64) %variant) local_unnamed_addr #1 align 2 {
entry:
  %isSpecLocale.i = getelementptr inbounds i8, ptr %src, i64 264
  %0 = load i8, ptr %isSpecLocale.i, align 8
  %tobool.not = icmp eq i8 %0, 0
  br i1 %tobool.not, label %if.else, label %if.then

if.then:                                          ; preds = %entry
  %call3 = tail call noundef ptr @_ZN6icu_7522TransliteratorRegistry12findInBundleERKNS_18TransliteratorSpecES3_RKNS_13UnicodeStringE15UTransDirection(ptr noundef nonnull align 8 dereferenceable(280) %src, ptr noundef nonnull align 8 dereferenceable(280) %trg, ptr noundef nonnull align 8 dereferenceable(64) %variant, i32 noundef 0)
  br label %if.end8

if.else:                                          ; preds = %entry
  %isSpecLocale.i11 = getelementptr inbounds i8, ptr %trg, i64 264
  %1 = load i8, ptr %isSpecLocale.i11, align 8
  %tobool5.not = icmp eq i8 %1, 0
  br i1 %tobool5.not, label %if.end12, label %if.then6

if.then6:                                         ; preds = %if.else
  %call7 = tail call noundef ptr @_ZN6icu_7522TransliteratorRegistry12findInBundleERKNS_18TransliteratorSpecES3_RKNS_13UnicodeStringE15UTransDirection(ptr noundef nonnull align 8 dereferenceable(280) %trg, ptr noundef nonnull align 8 dereferenceable(280) %src, ptr noundef nonnull align 8 dereferenceable(64) %variant, i32 noundef 1)
  br label %if.end8

if.end8:                                          ; preds = %if.then6, %if.then
  %entry2.0 = phi ptr [ %call3, %if.then ], [ %call7, %if.then6 ]
  %cmp.not = icmp eq ptr %entry2.0, null
  br i1 %cmp.not, label %if.end12, label %if.then9

if.then9:                                         ; preds = %if.end8
  %top.i = getelementptr inbounds i8, ptr %src, i64 8
  %top.i12 = getelementptr inbounds i8, ptr %trg, i64 8
  tail call void @_ZN6icu_7522TransliteratorRegistry13registerEntryERKNS_13UnicodeStringES3_S3_PNS_19TransliteratorEntryEa(ptr noundef nonnull align 8 dereferenceable(312) %this, ptr noundef nonnull align 8 dereferenceable(64) %top.i, ptr noundef nonnull align 8 dereferenceable(64) %top.i12, ptr noundef nonnull align 8 dereferenceable(64) %variant, ptr noundef nonnull %entry2.0, i8 noundef signext 0)
  br label %if.end12

if.end12:                                         ; preds = %if.else, %if.then9, %if.end8
  %entry2.015 = phi ptr [ %entry2.0, %if.then9 ], [ null, %if.end8 ], [ null, %if.else ]
  ret ptr %entry2.015
}